(lp0
ccopy_reg
_reconstructor
p1
(c__main__
Weapon
p2
c__builtin__
object
p3
Ntp4
Rp5
(dp6
S'harm'
p7
I2
sS'name'
p8
S'wooden sword'
p9
sS'Craftable'
p10
I01
sS'recipe'
p11
(g1
(c__main__
Material
p12
g3
Ntp13
Rp14
(dp15
g8
S'wood'
p16
sg10
I00
sg11
(tsS'isMaterial'
p17
I01
sS'isFood'
p18
I00
sS'cost'
p19
I3
sS'isWeapon'
p20
I00
sbg14
g1
(g12
g3
Ntp21
Rp22
(dp23
g8
S'stick'
p24
sg10
I01
sg11
(g14
tp25
sg17
I01
sg18
I00
sg19
I1
sg20
I00
sbtp26
sg17
I00
sg18
I00
sg19
I5
sg20
I01
sba.